---
triple:          'arm64-apple-darwin'
binary-path:     Mandelbrot
relocations:
  - { offset: 0x3F, size: 0x8, addend: 0x0, symName: _width, symObjAddr: 0x38B8, symBinAddr: 0x10000C000, symSize: 0x0 }
  - { offset: 0x5B, size: 0x8, addend: 0x0, symName: _height, symObjAddr: 0x38BC, symBinAddr: 0x10000C004, symSize: 0x0 }
  - { offset: 0x70, size: 0x8, addend: 0x0, symName: _maxIter, symObjAddr: 0x38C0, symBinAddr: 0x10000C008, symSize: 0x0 }
  - { offset: 0x85, size: 0x8, addend: 0x0, symName: _zoomIn, symObjAddr: 0x38C8, symBinAddr: 0x10000C010, symSize: 0x0 }
  - { offset: 0xA1, size: 0x8, addend: 0x0, symName: _minRe, symObjAddr: 0x38D0, symBinAddr: 0x10000C018, symSize: 0x0 }
  - { offset: 0xB6, size: 0x8, addend: 0x0, symName: _maxRe, symObjAddr: 0x38D8, symBinAddr: 0x10000C020, symSize: 0x0 }
  - { offset: 0xCB, size: 0x8, addend: 0x0, symName: _minIm, symObjAddr: 0x38E0, symBinAddr: 0x10000C028, symSize: 0x0 }
  - { offset: 0xE0, size: 0x8, addend: 0x0, symName: _maxIm, symObjAddr: 0x38E8, symBinAddr: 0x10000C030, symSize: 0x0 }
  - { offset: 0xFC, size: 0x8, addend: 0x0, symName: _main.omp_outlined_debug__, symObjAddr: 0x116C, symBinAddr: 0x1000052A0, symSize: 0x6E8 }
  - { offset: 0x11D, size: 0x8, addend: 0x0, symName: __ZZ4mainE6colors, symObjAddr: 0x68478, symBinAddr: 0x10000C038, symSize: 0x0 }
  - { offset: 0x136, size: 0x8, addend: 0x0, symName: __ZZ4mainE9max_color, symObjAddr: 0x68498, symBinAddr: 0x10000C058, symSize: 0x0 }
  - { offset: 0xC95D, size: 0x8, addend: 0x0, symName: __ZNSt3__119__libcpp_deallocateB8ne180100EPvmm, symObjAddr: 0x474, symBinAddr: 0x1000045A8, symSize: 0x30 }
  - { offset: 0xC9A5, size: 0x8, addend: 0x0, symName: __ZNSt3__127__do_deallocate_handle_sizeB8ne180100IJEEEvPvmDpT_, symObjAddr: 0x4B4, symBinAddr: 0x1000045E8, symSize: 0x28 }
  - { offset: 0xC9E3, size: 0x8, addend: 0x0, symName: __ZNSt3__124__libcpp_operator_deleteB8ne180100IJPvEEEvDpT_, symObjAddr: 0x4DC, symBinAddr: 0x100004610, symSize: 0x24 }
  - { offset: 0xCA18, size: 0x8, addend: 0x0, symName: __ZNSt3__13maxB8ne180100IiEERKT_S3_S3_, symObjAddr: 0xFE4, symBinAddr: 0x100005118, symSize: 0x2C }
  - { offset: 0xCA60, size: 0x8, addend: 0x0, symName: __ZNSt3__16__math3logB8ne180100IiLi0EEEdT_, symObjAddr: 0x18E4, symBinAddr: 0x100005A18, symSize: 0x30 }
  - { offset: 0xCAE0, size: 0x8, addend: 0x0, symName: __ZNSt3__13minB8ne180100ImEERKT_S3_S3_, symObjAddr: 0x1938, symBinAddr: 0x100005A6C, symSize: 0x2C }
  - { offset: 0x1075A, size: 0x8, addend: 0x0, symName: __ZNSt3__118__constexpr_strlenB8ne180100EPKc, symObjAddr: 0x1BE8, symBinAddr: 0x100005D1C, symSize: 0x24 }
  - { offset: 0x10786, size: 0x8, addend: 0x0, symName: __ZNSt3__13maxB8ne180100IiNS_6__lessIvvEEEERKT_S5_S5_T0_, symObjAddr: 0x1C0C, symBinAddr: 0x100005D40, symSize: 0x54 }
  - { offset: 0x10856, size: 0x8, addend: 0x0, symName: __ZNSt3__122__make_exception_guardB8ne180100INS_6vectorIN2sf5ColorENS_9allocatorIS3_EEE16__destroy_vectorEEENS_28__exception_guard_exceptionsIT_EES9_, symObjAddr: 0x1DF0, symBinAddr: 0x100005F24, symSize: 0x40 }
  - { offset: 0x1088B, size: 0x8, addend: 0x0, symName: __ZNSt3__119__allocate_at_leastB8ne180100INS_9allocatorIN2sf5ColorEEEEENS_19__allocation_resultINS_16allocator_traitsIT_E7pointerEEERS7_m, symObjAddr: 0x21F0, symBinAddr: 0x100006324, symSize: 0x40 }
  - { offset: 0x10ACF, size: 0x8, addend: 0x0, symName: __ZNSt3__120__throw_length_errorB8ne180100EPKc, symObjAddr: 0x2348, symBinAddr: 0x10000647C, symSize: 0x64 }
  - { offset: 0x10AF7, size: 0x8, addend: 0x0, symName: __ZNSt3__117__libcpp_allocateB8ne180100Emm, symObjAddr: 0x24B0, symBinAddr: 0x1000065E4, symSize: 0x28 }
  - { offset: 0x10B34, size: 0x8, addend: 0x0, symName: __ZNSt3__121__libcpp_operator_newB8ne180100IJmEEEPvDpT_, symObjAddr: 0x24D8, symBinAddr: 0x10000660C, symSize: 0x24 }
  - { offset: 0x10B6D, size: 0x8, addend: 0x0, symName: __ZNSt3__130__uninitialized_allocator_copyB8ne180100INS_9allocatorIN2sf5ColorEEEPKS3_S6_PS3_EET2_RT_T0_T1_S8_, symObjAddr: 0x25A8, symBinAddr: 0x1000066DC, symSize: 0x80 }
  - { offset: 0x10C0A, size: 0x8, addend: 0x0, symName: __ZNSt3__114__unwrap_rangeB8ne180100IPKN2sf5ColorES4_EENS_4pairIT0_S6_EET_S8_, symObjAddr: 0x2698, symBinAddr: 0x1000067CC, symSize: 0x60 }
  - { offset: 0x10C56, size: 0x8, addend: 0x0, symName: __ZNSt3__135__uninitialized_allocator_copy_implB8ne180100INS_9allocatorIN2sf5ColorEEEKS3_S3_S3_LPv0EEEPT2_RT_PT0_SC_S8_, symObjAddr: 0x26F8, symBinAddr: 0x10000682C, symSize: 0x38 }
  - { offset: 0x10CD7, size: 0x8, addend: 0x0, symName: __ZNSt3__113__unwrap_iterB8ne180100IPN2sf5ColorENS_18__unwrap_iter_implIS3_Lb1EEELi0EEEDTclsrT0_8__unwrapclsr3stdE7declvalIT_EEEES7_, symObjAddr: 0x2730, symBinAddr: 0x100006864, symSize: 0x24 }
  - { offset: 0x10D1B, size: 0x8, addend: 0x0, symName: __ZNSt3__113__rewrap_iterB8ne180100IPN2sf5ColorES3_NS_18__unwrap_iter_implIS3_Lb1EEEEET_S6_T0_, symObjAddr: 0x2754, symBinAddr: 0x100006888, symSize: 0x3C }
  - { offset: 0x10D70, size: 0x8, addend: 0x0, symName: __ZNSt3__19make_pairB8ne180100IPKN2sf5ColorES4_EENS_4pairINS_18__unwrap_ref_decayIT_E4typeENS6_IT0_E4typeEEEOS7_OSA_, symObjAddr: 0x2790, symBinAddr: 0x1000068C4, symSize: 0x38 }
  - { offset: 0x10DBF, size: 0x8, addend: 0x0, symName: __ZNSt3__113__unwrap_iterB8ne180100IPKN2sf5ColorENS_18__unwrap_iter_implIS4_Lb1EEELi0EEEDTclsrT0_8__unwrapclsr3stdE7declvalIT_EEEES8_, symObjAddr: 0x27C8, symBinAddr: 0x1000068FC, symSize: 0x24 }
  - { offset: 0x10F2A, size: 0x8, addend: 0x0, symName: __ZNSt3__112__to_addressB8ne180100IKN2sf5ColorEEEPT_S5_, symObjAddr: 0x2880, symBinAddr: 0x1000069B4, symSize: 0x14 }
  - { offset: 0x10F5F, size: 0x8, addend: 0x0, symName: __ZNSt3__14copyB8ne180100IPKN2sf5ColorEPS2_EET0_T_S7_S6_, symObjAddr: 0x2894, symBinAddr: 0x1000069C8, symSize: 0x40 }
  - { offset: 0x10FB9, size: 0x8, addend: 0x0, symName: __ZNSt3__16__copyB8ne180100INS_17_ClassicAlgPolicyEPKN2sf5ColorES5_PS3_EENS_4pairIT0_T2_EES8_T1_S9_, symObjAddr: 0x28D4, symBinAddr: 0x100006A08, symSize: 0x44 }
  - { offset: 0x11025, size: 0x8, addend: 0x0, symName: __ZNSt3__123__dispatch_copy_or_moveB8ne180100INS_17_ClassicAlgPolicyENS_11__copy_loopIS1_EENS_14__copy_trivialEPKN2sf5ColorES8_PS6_EENS_4pairIT2_T4_EESB_T3_SC_, symObjAddr: 0x2918, symBinAddr: 0x100006A4C, symSize: 0x44 }
  - { offset: 0x110A3, size: 0x8, addend: 0x0, symName: __ZNSt3__121__unwrap_and_dispatchB8ne180100INS_10__overloadINS_11__copy_loopINS_17_ClassicAlgPolicyEEENS_14__copy_trivialEEEPKN2sf5ColorESA_PS8_Li0EEENS_4pairIT0_T2_EESD_T1_SE_, symObjAddr: 0x295C, symBinAddr: 0x100006A90, symSize: 0xB4 }
  - { offset: 0x1127A, size: 0x8, addend: 0x0, symName: __ZNSt3__19make_pairB8ne180100IPKN2sf5ColorEPS2_EENS_4pairINS_18__unwrap_ref_decayIT_E4typeENS7_IT0_E4typeEEEOS8_OSB_, symObjAddr: 0x2A58, symBinAddr: 0x100006B8C, symSize: 0x38 }
  - { offset: 0x112C9, size: 0x8, addend: 0x0, symName: __ZNSt3__114__rewrap_rangeB8ne180100IPKN2sf5ColorES4_EET_S5_T0_, symObjAddr: 0x2A90, symBinAddr: 0x100006BC4, symSize: 0x2C }
  - { offset: 0x11315, size: 0x8, addend: 0x0, symName: __ZNSt3__119__copy_trivial_implB8ne180100IKN2sf5ColorES2_EENS_4pairIPT_PT0_EES6_S6_S8_, symObjAddr: 0x2ABC, symBinAddr: 0x100006BF0, symSize: 0x80 }
  - { offset: 0x1137D, size: 0x8, addend: 0x0, symName: __ZNSt3__119__constexpr_memmoveB8ne180100IN2sf5ColorEKS2_Li0EEEPT_S5_PT0_NS_15__element_countE, symObjAddr: 0x2B3C, symBinAddr: 0x100006C70, symSize: 0x64 }
  - { offset: 0x113EB, size: 0x8, addend: 0x0, symName: __ZNSt3__19make_pairB8ne180100IRPKN2sf5ColorEPS2_EENS_4pairINS_18__unwrap_ref_decayIT_E4typeENS8_IT0_E4typeEEEOS9_OSC_, symObjAddr: 0x2BA0, symBinAddr: 0x100006CD4, symSize: 0x38 }
  - { offset: 0x1143A, size: 0x8, addend: 0x0, symName: __ZNSt3__113__rewrap_iterB8ne180100IPKN2sf5ColorES4_NS_18__unwrap_iter_implIS4_Lb1EEEEET_S7_T0_, symObjAddr: 0x2CB8, symBinAddr: 0x100006DEC, symSize: 0x3C }
  - { offset: 0x114E2, size: 0x8, addend: 0x0, symName: __ZNSt3__112__to_addressB8ne180100IN2sf5ColorEEEPT_S4_, symObjAddr: 0x2D68, symBinAddr: 0x100006E9C, symSize: 0x14 }
  - { offset: 0x11517, size: 0x8, addend: 0x0, symName: __ZNSt3__13minB8ne180100ImNS_6__lessIvvEEEERKT_S5_S5_T0_, symObjAddr: 0x3124, symBinAddr: 0x100007258, symSize: 0x54 }
  - { offset: 0x11571, size: 0x8, addend: 0x0, symName: __ZNSt3__112__to_addressB8ne180100IN2sf6VertexEEEPT_S4_, symObjAddr: 0x35A4, symBinAddr: 0x1000076D8, symSize: 0x14 }
  - { offset: 0x1249D, size: 0x8, addend: 0x0, symName: __ZSt28__throw_bad_array_new_lengthB8ne180100v, symObjAddr: 0x247C, symBinAddr: 0x1000065B0, symSize: 0x34 }
  - { offset: 0x17CC8, size: 0x8, addend: 0x0, symName: __Z19resetWindowAndImageRN2sf12RenderWindowERNS_5ImageERNS_7TextureERNS_6SpriteE, symObjAddr: 0x0, symBinAddr: 0x100004134, symSize: 0x1D8 }
  - { offset: 0x17D1B, size: 0x8, addend: 0x0, symName: __ZN2sf6StringD1Ev, symObjAddr: 0x1D8, symBinAddr: 0x10000430C, symSize: 0x2C }
  - { offset: 0x17D46, size: 0x8, addend: 0x0, symName: __ZN2sf4RectIiEC1Ev, symObjAddr: 0x204, symBinAddr: 0x100004338, symSize: 0x2C }
  - { offset: 0x17D71, size: 0x8, addend: 0x0, symName: __ZN2sf6StringD2Ev, symObjAddr: 0x230, symBinAddr: 0x100004364, symSize: 0x2C }
  - { offset: 0x17D9C, size: 0x8, addend: 0x0, symName: __ZNSt3__112basic_stringIjNS_11char_traitsIjEENS_9allocatorIjEEED1Ev, symObjAddr: 0x25C, symBinAddr: 0x100004390, symSize: 0x2C }
  - { offset: 0x17DC5, size: 0x8, addend: 0x0, symName: __ZNSt3__112basic_stringIjNS_11char_traitsIjEENS_9allocatorIjEEED2Ev, symObjAddr: 0x288, symBinAddr: 0x1000043BC, symSize: 0x7C }
  - { offset: 0x17DEE, size: 0x8, addend: 0x0, symName: __ZNKSt3__112basic_stringIjNS_11char_traitsIjEENS_9allocatorIjEEE17__annotate_deleteB8ne180100Ev, symObjAddr: 0x304, symBinAddr: 0x100004438, symSize: 0x10 }
  - { offset: 0x17E13, size: 0x8, addend: 0x0, symName: __ZNKSt3__112basic_stringIjNS_11char_traitsIjEENS_9allocatorIjEEE9__is_longB8ne180100Ev, symObjAddr: 0x314, symBinAddr: 0x100004448, symSize: 0x38 }
  - { offset: 0x17E38, size: 0x8, addend: 0x0, symName: __ZNSt3__116allocator_traitsINS_9allocatorIjEEE10deallocateB8ne180100ERS2_Pjm, symObjAddr: 0x34C, symBinAddr: 0x100004480, symSize: 0x34 }
  - { offset: 0x17E7A, size: 0x8, addend: 0x0, symName: __ZNSt3__112basic_stringIjNS_11char_traitsIjEENS_9allocatorIjEEE7__allocB8ne180100Ev, symObjAddr: 0x380, symBinAddr: 0x1000044B4, symSize: 0x24 }
  - { offset: 0x17E9F, size: 0x8, addend: 0x0, symName: __ZNSt3__112basic_stringIjNS_11char_traitsIjEENS_9allocatorIjEEE18__get_long_pointerB8ne180100Ev, symObjAddr: 0x3A4, symBinAddr: 0x1000044D8, symSize: 0x28 }
  - { offset: 0x17EC4, size: 0x8, addend: 0x0, symName: __ZNKSt3__112basic_stringIjNS_11char_traitsIjEENS_9allocatorIjEEE14__get_long_capB8ne180100Ev, symObjAddr: 0x3CC, symBinAddr: 0x100004500, symSize: 0x30 }
  - { offset: 0x17EE9, size: 0x8, addend: 0x0, symName: __ZNKSt3__117__compressed_pairINS_12basic_stringIjNS_11char_traitsIjEENS_9allocatorIjEEE5__repES5_E5firstB8ne180100Ev, symObjAddr: 0x3FC, symBinAddr: 0x100004530, symSize: 0x24 }
  - { offset: 0x17F0E, size: 0x8, addend: 0x0, symName: __ZNKSt3__122__compressed_pair_elemINS_12basic_stringIjNS_11char_traitsIjEENS_9allocatorIjEEE5__repELi0ELb0EE5__getB8ne180100Ev, symObjAddr: 0x420, symBinAddr: 0x100004554, symSize: 0x14 }
  - { offset: 0x17F33, size: 0x8, addend: 0x0, symName: __ZNSt3__19allocatorIjE10deallocateB8ne180100EPjm, symObjAddr: 0x434, symBinAddr: 0x100004568, symSize: 0x40 }
  - { offset: 0x17F74, size: 0x8, addend: 0x0, symName: __ZNSt3__117__compressed_pairINS_12basic_stringIjNS_11char_traitsIjEENS_9allocatorIjEEE5__repES5_E6secondB8ne180100Ev, symObjAddr: 0x500, symBinAddr: 0x100004634, symSize: 0x24 }
  - { offset: 0x17F99, size: 0x8, addend: 0x0, symName: __ZNSt3__122__compressed_pair_elemINS_9allocatorIjEELi1ELb1EE5__getB8ne180100Ev, symObjAddr: 0x524, symBinAddr: 0x100004658, symSize: 0x14 }
  - { offset: 0x17FBE, size: 0x8, addend: 0x0, symName: __ZNSt3__117__compressed_pairINS_12basic_stringIjNS_11char_traitsIjEENS_9allocatorIjEEE5__repES5_E5firstB8ne180100Ev, symObjAddr: 0x538, symBinAddr: 0x10000466C, symSize: 0x24 }
  - { offset: 0x17FE3, size: 0x8, addend: 0x0, symName: __ZNSt3__122__compressed_pair_elemINS_12basic_stringIjNS_11char_traitsIjEENS_9allocatorIjEEE5__repELi0ELb0EE5__getB8ne180100Ev, symObjAddr: 0x55C, symBinAddr: 0x100004690, symSize: 0x14 }
  - { offset: 0x18008, size: 0x8, addend: 0x0, symName: __ZN2sf4RectIiEC2Ev, symObjAddr: 0x570, symBinAddr: 0x1000046A4, symSize: 0x24 }
  - { offset: 0x18032, size: 0x8, addend: 0x0, symName: __Z20linear_interpolationRKN2sf5ColorES2_d, symObjAddr: 0x594, symBinAddr: 0x1000046C8, symSize: 0xD4 }
  - { offset: 0x18089, size: 0x8, addend: 0x0, symName: _main, symObjAddr: 0x668, symBinAddr: 0x10000479C, symSize: 0x8D8 }
  - { offset: 0x18192, size: 0x8, addend: 0x0, symName: __ZN2sf15ContextSettingsC1Ejjjjjjb, symObjAddr: 0xF40, symBinAddr: 0x100005074, symSize: 0x70 }
  - { offset: 0x18222, size: 0x8, addend: 0x0, symName: __ZNSt3__112basic_stringIcNS_11char_traitsIcEENS_9allocatorIcEEEC1B8ne180100ILi0EEEPKc, symObjAddr: 0xFB0, symBinAddr: 0x1000050E4, symSize: 0x34 }
  - { offset: 0x1826A, size: 0x8, addend: 0x0, symName: '__ZZ4mainENK3$_0clEd', symObjAddr: 0x1010, symBinAddr: 0x100005144, symSize: 0x15C }
  - { offset: 0x182D9, size: 0x8, addend: 0x0, symName: __ZNSt3__16vectorIN2sf5ColorENS_9allocatorIS2_EEEC1B8ne180100ESt16initializer_listIS2_E, symObjAddr: 0x1854, symBinAddr: 0x100005988, symSize: 0x3C }
  - { offset: 0x18313, size: 0x8, addend: 0x0, symName: __ZNSt3__16vectorIN2sf5ColorENS_9allocatorIS2_EEED1B8ne180100Ev, symObjAddr: 0x1890, symBinAddr: 0x1000059C4, symSize: 0x2C }
  - { offset: 0x1833C, size: 0x8, addend: 0x0, symName: __ZNKSt3__16vectorIN2sf5ColorENS_9allocatorIS2_EEE4sizeB8ne180100Ev, symObjAddr: 0x18BC, symBinAddr: 0x1000059F0, symSize: 0x28 }
  - { offset: 0x18361, size: 0x8, addend: 0x0, symName: __ZNKSt3__16vectorIN2sf5ColorENS_9allocatorIS2_EEEixB8ne180100Em, symObjAddr: 0x1914, symBinAddr: 0x100005A48, symSize: 0x24 }
  - { offset: 0x18396, size: 0x8, addend: 0x0, symName: _main.omp_outlined, symObjAddr: 0x1964, symBinAddr: 0x100005A98, symSize: 0x34 }
  - { offset: 0x189A8, size: 0x8, addend: 0x0, symName: __ZN2sf4TextD1Ev, symObjAddr: 0x1998, symBinAddr: 0x100005ACC, symSize: 0x2C }
  - { offset: 0x189E2, size: 0x8, addend: 0x0, symName: __ZN2sf6SpriteD1Ev, symObjAddr: 0x19C4, symBinAddr: 0x100005AF8, symSize: 0x2C }
  - { offset: 0x18A0D, size: 0x8, addend: 0x0, symName: __ZN2sf15ContextSettingsC2Ejjjjjjb, symObjAddr: 0x19F0, symBinAddr: 0x100005B24, symSize: 0x74 }
  - { offset: 0x18A98, size: 0x8, addend: 0x0, symName: __ZNSt3__112basic_stringIcNS_11char_traitsIcEENS_9allocatorIcEEEC2B8ne180100ILi0EEEPKc, symObjAddr: 0x1A64, symBinAddr: 0x100005B98, symSize: 0x58 }
  - { offset: 0x18ADB, size: 0x8, addend: 0x0, symName: __ZNSt3__117__compressed_pairINS_12basic_stringIcNS_11char_traitsIcEENS_9allocatorIcEEE5__repES5_EC1B8ne180100INS_18__default_init_tagESA_EEOT_OT0_, symObjAddr: 0x1ABC, symBinAddr: 0x100005BF0, symSize: 0x3C }
  - { offset: 0x18B32, size: 0x8, addend: 0x0, symName: __ZNSt3__111char_traitsIcE6lengthB8ne180100EPKc, symObjAddr: 0x1AF8, symBinAddr: 0x100005C2C, symSize: 0x34 }
  - { offset: 0x18B55, size: 0x8, addend: 0x0, symName: __ZNSt3__117__compressed_pairINS_12basic_stringIcNS_11char_traitsIcEENS_9allocatorIcEEE5__repES5_EC2B8ne180100INS_18__default_init_tagESA_EEOT_OT0_, symObjAddr: 0x1B2C, symBinAddr: 0x100005C60, symSize: 0x3C }
  - { offset: 0x18BAC, size: 0x8, addend: 0x0, symName: __ZNSt3__122__compressed_pair_elemINS_12basic_stringIcNS_11char_traitsIcEENS_9allocatorIcEEE5__repELi0ELb0EEC2B8ne180100ENS_18__default_init_tagE, symObjAddr: 0x1B68, symBinAddr: 0x100005C9C, symSize: 0x14 }
  - { offset: 0x18BE0, size: 0x8, addend: 0x0, symName: __ZNSt3__122__compressed_pair_elemINS_9allocatorIcEELi1ELb1EEC2B8ne180100ENS_18__default_init_tagE, symObjAddr: 0x1B7C, symBinAddr: 0x100005CB0, symSize: 0x2C }
  - { offset: 0x18C14, size: 0x8, addend: 0x0, symName: __ZNSt3__19allocatorIcEC2B8ne180100Ev, symObjAddr: 0x1BA8, symBinAddr: 0x100005CDC, symSize: 0x2C }
  - { offset: 0x18C3D, size: 0x8, addend: 0x0, symName: __ZNSt3__116__non_trivial_ifILb1ENS_9allocatorIcEEEC2B8ne180100Ev, symObjAddr: 0x1BD4, symBinAddr: 0x100005D08, symSize: 0x14 }
  - { offset: 0x18C70, size: 0x8, addend: 0x0, symName: __ZNKSt3__16__lessIvvEclB8ne180100IiiEEbRKT_RKT0_, symObjAddr: 0x1C60, symBinAddr: 0x100005D94, symSize: 0x34 }
  - { offset: 0x18CC3, size: 0x8, addend: 0x0, symName: __ZNSt3__16vectorIN2sf5ColorENS_9allocatorIS2_EEEC2B8ne180100ESt16initializer_listIS2_E, symObjAddr: 0x1C94, symBinAddr: 0x100005DC8, symSize: 0x120 }
  - { offset: 0x18D1D, size: 0x8, addend: 0x0, symName: __ZNSt3__117__compressed_pairIPN2sf5ColorENS_9allocatorIS2_EEEC1B8ne180100IDnNS_18__default_init_tagEEEOT_OT0_, symObjAddr: 0x1DB4, symBinAddr: 0x100005EE8, symSize: 0x3C }
  - { offset: 0x18D74, size: 0x8, addend: 0x0, symName: __ZNSt3__16vectorIN2sf5ColorENS_9allocatorIS2_EEE16__destroy_vectorC1B8ne180100ERS5_, symObjAddr: 0x1E30, symBinAddr: 0x100005F64, symSize: 0x34 }
  - { offset: 0x18DAC, size: 0x8, addend: 0x0, symName: __ZNKSt16initializer_listIN2sf5ColorEE4sizeB8ne180100Ev, symObjAddr: 0x1E64, symBinAddr: 0x100005F98, symSize: 0x18 }
  - { offset: 0x18DD1, size: 0x8, addend: 0x0, symName: __ZNSt3__16vectorIN2sf5ColorENS_9allocatorIS2_EEE11__vallocateB8ne180100Em, symObjAddr: 0x1E7C, symBinAddr: 0x100005FB0, symSize: 0xAC }
  - { offset: 0x18E14, size: 0x8, addend: 0x0, symName: __ZNSt3__16vectorIN2sf5ColorENS_9allocatorIS2_EEE18__construct_at_endIPKS2_S8_EEvT_T0_m, symObjAddr: 0x1F28, symBinAddr: 0x10000605C, symSize: 0x8C }
  - { offset: 0x18E89, size: 0x8, addend: 0x0, symName: __ZNKSt16initializer_listIN2sf5ColorEE5beginB8ne180100Ev, symObjAddr: 0x1FB4, symBinAddr: 0x1000060E8, symSize: 0x18 }
  - { offset: 0x18EAE, size: 0x8, addend: 0x0, symName: __ZNKSt16initializer_listIN2sf5ColorEE3endB8ne180100Ev, symObjAddr: 0x1FCC, symBinAddr: 0x100006100, symSize: 0x20 }
  - { offset: 0x18ED3, size: 0x8, addend: 0x0, symName: __ZNSt3__128__exception_guard_exceptionsINS_6vectorIN2sf5ColorENS_9allocatorIS3_EEE16__destroy_vectorEE10__completeB8ne180100Ev, symObjAddr: 0x1FEC, symBinAddr: 0x100006120, symSize: 0x1C }
  - { offset: 0x18EF8, size: 0x8, addend: 0x0, symName: __ZNSt3__128__exception_guard_exceptionsINS_6vectorIN2sf5ColorENS_9allocatorIS3_EEE16__destroy_vectorEED1B8ne180100Ev, symObjAddr: 0x2008, symBinAddr: 0x10000613C, symSize: 0x2C }
  - { offset: 0x18F21, size: 0x8, addend: 0x0, symName: __ZNSt3__117__compressed_pairIPN2sf5ColorENS_9allocatorIS2_EEEC2B8ne180100IDnNS_18__default_init_tagEEEOT_OT0_, symObjAddr: 0x2034, symBinAddr: 0x100006168, symSize: 0x40 }
  - { offset: 0x18F78, size: 0x8, addend: 0x0, symName: __ZNSt3__122__compressed_pair_elemIPN2sf5ColorELi0ELb0EEC2B8ne180100IDnvEEOT_, symObjAddr: 0x2074, symBinAddr: 0x1000061A8, symSize: 0x1C }
  - { offset: 0x18FB9, size: 0x8, addend: 0x0, symName: __ZNSt3__122__compressed_pair_elemINS_9allocatorIN2sf5ColorEEELi1ELb1EEC2B8ne180100ENS_18__default_init_tagE, symObjAddr: 0x2090, symBinAddr: 0x1000061C4, symSize: 0x2C }
  - { offset: 0x18FED, size: 0x8, addend: 0x0, symName: __ZNSt3__19allocatorIN2sf5ColorEEC2B8ne180100Ev, symObjAddr: 0x20BC, symBinAddr: 0x1000061F0, symSize: 0x2C }
  - { offset: 0x19016, size: 0x8, addend: 0x0, symName: __ZNSt3__116__non_trivial_ifILb1ENS_9allocatorIN2sf5ColorEEEEC2B8ne180100Ev, symObjAddr: 0x20E8, symBinAddr: 0x10000621C, symSize: 0x14 }
  - { offset: 0x1903F, size: 0x8, addend: 0x0, symName: __ZNSt3__128__exception_guard_exceptionsINS_6vectorIN2sf5ColorENS_9allocatorIS3_EEE16__destroy_vectorEEC1B8ne180100ES7_, symObjAddr: 0x20FC, symBinAddr: 0x100006230, symSize: 0x34 }
  - { offset: 0x19076, size: 0x8, addend: 0x0, symName: __ZNSt3__128__exception_guard_exceptionsINS_6vectorIN2sf5ColorENS_9allocatorIS3_EEE16__destroy_vectorEEC2B8ne180100ES7_, symObjAddr: 0x2130, symBinAddr: 0x100006264, symSize: 0x24 }
  - { offset: 0x190AD, size: 0x8, addend: 0x0, symName: __ZNSt3__16vectorIN2sf5ColorENS_9allocatorIS2_EEE16__destroy_vectorC2B8ne180100ERS5_, symObjAddr: 0x2154, symBinAddr: 0x100006288, symSize: 0x20 }
  - { offset: 0x190E5, size: 0x8, addend: 0x0, symName: __ZNKSt3__16vectorIN2sf5ColorENS_9allocatorIS2_EEE8max_sizeEv, symObjAddr: 0x2174, symBinAddr: 0x1000062A8, symSize: 0x60 }
  - { offset: 0x1910C, size: 0x8, addend: 0x0, symName: __ZNKSt3__16vectorIN2sf5ColorENS_9allocatorIS2_EEE20__throw_length_errorB8ne180100Ev, symObjAddr: 0x21D4, symBinAddr: 0x100006308, symSize: 0x1C }
  - { offset: 0x19131, size: 0x8, addend: 0x0, symName: __ZNSt3__16vectorIN2sf5ColorENS_9allocatorIS2_EEE7__allocB8ne180100Ev, symObjAddr: 0x2230, symBinAddr: 0x100006364, symSize: 0x28 }
  - { offset: 0x19156, size: 0x8, addend: 0x0, symName: __ZNSt3__16vectorIN2sf5ColorENS_9allocatorIS2_EEE9__end_capB8ne180100Ev, symObjAddr: 0x2258, symBinAddr: 0x10000638C, symSize: 0x28 }
  - { offset: 0x1917B, size: 0x8, addend: 0x0, symName: __ZNKSt3__16vectorIN2sf5ColorENS_9allocatorIS2_EEE14__annotate_newB8ne180100Em, symObjAddr: 0x2280, symBinAddr: 0x1000063B4, symSize: 0x14 }
  - { offset: 0x191B9, size: 0x8, addend: 0x0, symName: __ZNSt3__116allocator_traitsINS_9allocatorIN2sf5ColorEEEE8max_sizeB8ne180100IS4_vEEmRKS4_, symObjAddr: 0x2294, symBinAddr: 0x1000063C8, symSize: 0x24 }
  - { offset: 0x191E7, size: 0x8, addend: 0x0, symName: __ZNKSt3__16vectorIN2sf5ColorENS_9allocatorIS2_EEE7__allocB8ne180100Ev, symObjAddr: 0x22B8, symBinAddr: 0x1000063EC, symSize: 0x28 }
  - { offset: 0x1920C, size: 0x8, addend: 0x0, symName: __ZNSt3__114numeric_limitsIlE3maxB8ne180100Ev, symObjAddr: 0x22E0, symBinAddr: 0x100006414, symSize: 0x14 }
  - { offset: 0x19220, size: 0x8, addend: 0x0, symName: __ZNKSt3__19allocatorIN2sf5ColorEE8max_sizeB8ne180100Ev, symObjAddr: 0x22F4, symBinAddr: 0x100006428, symSize: 0x14 }
  - { offset: 0x19245, size: 0x8, addend: 0x0, symName: __ZNKSt3__117__compressed_pairIPN2sf5ColorENS_9allocatorIS2_EEE6secondB8ne180100Ev, symObjAddr: 0x2308, symBinAddr: 0x10000643C, symSize: 0x24 }
  - { offset: 0x1926A, size: 0x8, addend: 0x0, symName: __ZNKSt3__122__compressed_pair_elemINS_9allocatorIN2sf5ColorEEELi1ELb1EE5__getB8ne180100Ev, symObjAddr: 0x232C, symBinAddr: 0x100006460, symSize: 0x14 }
  - { offset: 0x1928F, size: 0x8, addend: 0x0, symName: __ZNSt3__123__libcpp_numeric_limitsIlLb1EE3maxB8ne180100Ev, symObjAddr: 0x2340, symBinAddr: 0x100006474, symSize: 0x8 }
  - { offset: 0x192A3, size: 0x8, addend: 0x0, symName: __ZNSt12length_errorC1B8ne180100EPKc, symObjAddr: 0x23AC, symBinAddr: 0x1000064E0, symSize: 0x34 }
  - { offset: 0x192DA, size: 0x8, addend: 0x0, symName: __ZNSt12length_errorC2B8ne180100EPKc, symObjAddr: 0x23E0, symBinAddr: 0x100006514, symSize: 0x44 }
  - { offset: 0x19311, size: 0x8, addend: 0x0, symName: __ZNSt3__19allocatorIN2sf5ColorEE8allocateB8ne180100Em, symObjAddr: 0x2424, symBinAddr: 0x100006558, symSize: 0x58 }
  - { offset: 0x19344, size: 0x8, addend: 0x0, symName: __ZNSt3__117__compressed_pairIPN2sf5ColorENS_9allocatorIS2_EEE6secondB8ne180100Ev, symObjAddr: 0x24FC, symBinAddr: 0x100006630, symSize: 0x24 }
  - { offset: 0x19369, size: 0x8, addend: 0x0, symName: __ZNSt3__122__compressed_pair_elemINS_9allocatorIN2sf5ColorEEELi1ELb1EE5__getB8ne180100Ev, symObjAddr: 0x2520, symBinAddr: 0x100006654, symSize: 0x14 }
  - { offset: 0x1938E, size: 0x8, addend: 0x0, symName: __ZNSt3__117__compressed_pairIPN2sf5ColorENS_9allocatorIS2_EEE5firstB8ne180100Ev, symObjAddr: 0x2534, symBinAddr: 0x100006668, symSize: 0x24 }
  - { offset: 0x193B3, size: 0x8, addend: 0x0, symName: __ZNSt3__122__compressed_pair_elemIPN2sf5ColorELi0ELb0EE5__getB8ne180100Ev, symObjAddr: 0x2558, symBinAddr: 0x10000668C, symSize: 0x14 }
  - { offset: 0x193F1, size: 0x8, addend: 0x0, symName: __ZNSt3__16vectorIN2sf5ColorENS_9allocatorIS2_EEE21_ConstructTransactionC1B8ne180100ERS5_m, symObjAddr: 0x256C, symBinAddr: 0x1000066A0, symSize: 0x3C }
  - { offset: 0x19438, size: 0x8, addend: 0x0, symName: __ZNSt3__16vectorIN2sf5ColorENS_9allocatorIS2_EEE21_ConstructTransactionD1B8ne180100Ev, symObjAddr: 0x2628, symBinAddr: 0x10000675C, symSize: 0x2C }
  - { offset: 0x19461, size: 0x8, addend: 0x0, symName: __ZNSt3__16vectorIN2sf5ColorENS_9allocatorIS2_EEE21_ConstructTransactionC2B8ne180100ERS5_m, symObjAddr: 0x2654, symBinAddr: 0x100006788, symSize: 0x44 }
  - { offset: 0x194C6, size: 0x8, addend: 0x0, symName: __ZNSt3__14pairIPKN2sf5ColorES4_EC1B8ne180100IS4_S4_Li0EEEOT_OT0_, symObjAddr: 0x27EC, symBinAddr: 0x100006920, symSize: 0x3C }
  - { offset: 0x19523, size: 0x8, addend: 0x0, symName: __ZNSt3__14pairIPKN2sf5ColorES4_EC2B8ne180100IS4_S4_Li0EEEOT_OT0_, symObjAddr: 0x2828, symBinAddr: 0x10000695C, symSize: 0x34 }
  - { offset: 0x19580, size: 0x8, addend: 0x0, symName: __ZNSt3__118__unwrap_iter_implIPKN2sf5ColorELb1EE8__unwrapB8ne180100ES4_, symObjAddr: 0x285C, symBinAddr: 0x100006990, symSize: 0x24 }
  - { offset: 0x195C6, size: 0x8, addend: 0x0, symName: __ZNKSt3__114__copy_trivialclB8ne180100IKN2sf5ColorES3_Li0EEENS_4pairIPT_PT0_EES7_S7_S9_, symObjAddr: 0x2A10, symBinAddr: 0x100006B44, symSize: 0x48 }
  - { offset: 0x19637, size: 0x8, addend: 0x0, symName: __ZNSt3__14pairIPKN2sf5ColorEPS2_EC1B8ne180100IRS4_S5_Li0EEEOT_OT0_, symObjAddr: 0x2BD8, symBinAddr: 0x100006D0C, symSize: 0x3C }
  - { offset: 0x19694, size: 0x8, addend: 0x0, symName: __ZNSt3__14pairIPKN2sf5ColorEPS2_EC2B8ne180100IRS4_S5_Li0EEEOT_OT0_, symObjAddr: 0x2C14, symBinAddr: 0x100006D48, symSize: 0x34 }
  - { offset: 0x196F1, size: 0x8, addend: 0x0, symName: __ZNSt3__14pairIPKN2sf5ColorEPS2_EC1B8ne180100IS4_S5_Li0EEEOT_OT0_, symObjAddr: 0x2C48, symBinAddr: 0x100006D7C, symSize: 0x3C }
  - { offset: 0x1974E, size: 0x8, addend: 0x0, symName: __ZNSt3__14pairIPKN2sf5ColorEPS2_EC2B8ne180100IS4_S5_Li0EEEOT_OT0_, symObjAddr: 0x2C84, symBinAddr: 0x100006DB8, symSize: 0x34 }
  - { offset: 0x197AB, size: 0x8, addend: 0x0, symName: __ZNSt3__118__unwrap_iter_implIPKN2sf5ColorELb1EE8__rewrapB8ne180100ES4_S4_, symObjAddr: 0x2CF4, symBinAddr: 0x100006E28, symSize: 0x50 }
  - { offset: 0x197DC, size: 0x8, addend: 0x0, symName: __ZNSt3__118__unwrap_iter_implIPN2sf5ColorELb1EE8__unwrapB8ne180100ES3_, symObjAddr: 0x2D44, symBinAddr: 0x100006E78, symSize: 0x24 }
  - { offset: 0x197FF, size: 0x8, addend: 0x0, symName: __ZNSt3__118__unwrap_iter_implIPN2sf5ColorELb1EE8__rewrapB8ne180100ES3_S3_, symObjAddr: 0x2D7C, symBinAddr: 0x100006EB0, symSize: 0x50 }
  - { offset: 0x19830, size: 0x8, addend: 0x0, symName: __ZNSt3__16vectorIN2sf5ColorENS_9allocatorIS2_EEE21_ConstructTransactionD2B8ne180100Ev, symObjAddr: 0x2DCC, symBinAddr: 0x100006F00, symSize: 0x20 }
  - { offset: 0x19859, size: 0x8, addend: 0x0, symName: __ZNSt3__128__exception_guard_exceptionsINS_6vectorIN2sf5ColorENS_9allocatorIS3_EEE16__destroy_vectorEED2B8ne180100Ev, symObjAddr: 0x2DEC, symBinAddr: 0x100006F20, symSize: 0x50 }
  - { offset: 0x19882, size: 0x8, addend: 0x0, symName: __ZNSt3__16vectorIN2sf5ColorENS_9allocatorIS2_EEE16__destroy_vectorclB8ne180100Ev, symObjAddr: 0x2E3C, symBinAddr: 0x100006F70, symSize: 0x90 }
  - { offset: 0x198A7, size: 0x8, addend: 0x0, symName: __ZNSt3__16vectorIN2sf5ColorENS_9allocatorIS2_EEE7__clearB8ne180100Ev, symObjAddr: 0x2ECC, symBinAddr: 0x100007000, symSize: 0x28 }
  - { offset: 0x198CC, size: 0x8, addend: 0x0, symName: __ZNKSt3__16vectorIN2sf5ColorENS_9allocatorIS2_EEE17__annotate_deleteB8ne180100Ev, symObjAddr: 0x2EF4, symBinAddr: 0x100007028, symSize: 0x10 }
  - { offset: 0x198F1, size: 0x8, addend: 0x0, symName: __ZNSt3__116allocator_traitsINS_9allocatorIN2sf5ColorEEEE10deallocateB8ne180100ERS4_PS3_m, symObjAddr: 0x2F04, symBinAddr: 0x100007038, symSize: 0x34 }
  - { offset: 0x19933, size: 0x8, addend: 0x0, symName: __ZNKSt3__16vectorIN2sf5ColorENS_9allocatorIS2_EEE8capacityB8ne180100Ev, symObjAddr: 0x2F38, symBinAddr: 0x10000706C, symSize: 0x40 }
  - { offset: 0x19958, size: 0x8, addend: 0x0, symName: __ZNSt3__16vectorIN2sf5ColorENS_9allocatorIS2_EEE22__base_destruct_at_endB8ne180100EPS2_, symObjAddr: 0x2F78, symBinAddr: 0x1000070AC, symSize: 0x8C }
  - { offset: 0x1999B, size: 0x8, addend: 0x0, symName: __ZNSt3__116allocator_traitsINS_9allocatorIN2sf5ColorEEEE7destroyB8ne180100IS3_vEEvRS4_PT_, symObjAddr: 0x3004, symBinAddr: 0x100007138, symSize: 0x2C }
  - { offset: 0x199D8, size: 0x8, addend: 0x0, symName: __ZNSt3__19allocatorIN2sf5ColorEE7destroyB8ne180100EPS2_, symObjAddr: 0x3030, symBinAddr: 0x100007164, symSize: 0x14 }
  - { offset: 0x19A0B, size: 0x8, addend: 0x0, symName: __ZNSt3__19allocatorIN2sf5ColorEE10deallocateB8ne180100EPS2_m, symObjAddr: 0x3044, symBinAddr: 0x100007178, symSize: 0x40 }
  - { offset: 0x19A4C, size: 0x8, addend: 0x0, symName: __ZNKSt3__16vectorIN2sf5ColorENS_9allocatorIS2_EEE9__end_capB8ne180100Ev, symObjAddr: 0x3084, symBinAddr: 0x1000071B8, symSize: 0x28 }
  - { offset: 0x19A71, size: 0x8, addend: 0x0, symName: __ZNKSt3__117__compressed_pairIPN2sf5ColorENS_9allocatorIS2_EEE5firstB8ne180100Ev, symObjAddr: 0x30AC, symBinAddr: 0x1000071E0, symSize: 0x24 }
  - { offset: 0x19A96, size: 0x8, addend: 0x0, symName: __ZNKSt3__122__compressed_pair_elemIPN2sf5ColorELi0ELb0EE5__getB8ne180100Ev, symObjAddr: 0x30D0, symBinAddr: 0x100007204, symSize: 0x14 }
  - { offset: 0x19ABB, size: 0x8, addend: 0x0, symName: __ZNSt3__16vectorIN2sf5ColorENS_9allocatorIS2_EEED2B8ne180100Ev, symObjAddr: 0x30E4, symBinAddr: 0x100007218, symSize: 0x40 }
  - { offset: 0x19AE4, size: 0x8, addend: 0x0, symName: __ZNKSt3__16__lessIvvEclB8ne180100ImmEEbRKT_RKT0_, symObjAddr: 0x3178, symBinAddr: 0x1000072AC, symSize: 0x34 }
  - { offset: 0x19B37, size: 0x8, addend: 0x0, symName: __ZN2sf4TextD2Ev, symObjAddr: 0x31AC, symBinAddr: 0x1000072E0, symSize: 0x74 }
  - { offset: 0x19B62, size: 0x8, addend: 0x0, symName: __ZThn8_N2sf4TextD1Ev, symObjAddr: 0x3220, symBinAddr: 0x100007354, symSize: 0x1C }
  - { offset: 0x19B78, size: 0x8, addend: 0x0, symName: __ZN2sf11VertexArrayD1Ev, symObjAddr: 0x323C, symBinAddr: 0x100007370, symSize: 0x2C }
  - { offset: 0x19BA3, size: 0x8, addend: 0x0, symName: __ZN2sf8DrawableD2Ev, symObjAddr: 0x3268, symBinAddr: 0x10000739C, symSize: 0x14 }
  - { offset: 0x19BCC, size: 0x8, addend: 0x0, symName: __ZN2sf11VertexArrayD2Ev, symObjAddr: 0x327C, symBinAddr: 0x1000073B0, symSize: 0x48 }
  - { offset: 0x19BF7, size: 0x8, addend: 0x0, symName: __ZNSt3__16vectorIN2sf6VertexENS_9allocatorIS2_EEED1B8ne180100Ev, symObjAddr: 0x32C4, symBinAddr: 0x1000073F8, symSize: 0x2C }
  - { offset: 0x19C20, size: 0x8, addend: 0x0, symName: __ZNSt3__16vectorIN2sf6VertexENS_9allocatorIS2_EEED2B8ne180100Ev, symObjAddr: 0x32F0, symBinAddr: 0x100007424, symSize: 0x44 }
  - { offset: 0x19C49, size: 0x8, addend: 0x0, symName: __ZNSt3__16vectorIN2sf6VertexENS_9allocatorIS2_EEE16__destroy_vectorC1B8ne180100ERS5_, symObjAddr: 0x3334, symBinAddr: 0x100007468, symSize: 0x34 }
  - { offset: 0x19C81, size: 0x8, addend: 0x0, symName: __ZNSt3__16vectorIN2sf6VertexENS_9allocatorIS2_EEE16__destroy_vectorclB8ne180100Ev, symObjAddr: 0x3368, symBinAddr: 0x10000749C, symSize: 0x90 }
  - { offset: 0x19CA6, size: 0x8, addend: 0x0, symName: __ZNSt3__16vectorIN2sf6VertexENS_9allocatorIS2_EEE16__destroy_vectorC2B8ne180100ERS5_, symObjAddr: 0x33F8, symBinAddr: 0x10000752C, symSize: 0x20 }
  - { offset: 0x19CDE, size: 0x8, addend: 0x0, symName: __ZNSt3__16vectorIN2sf6VertexENS_9allocatorIS2_EEE7__clearB8ne180100Ev, symObjAddr: 0x3418, symBinAddr: 0x10000754C, symSize: 0x28 }
  - { offset: 0x19D03, size: 0x8, addend: 0x0, symName: __ZNKSt3__16vectorIN2sf6VertexENS_9allocatorIS2_EEE17__annotate_deleteB8ne180100Ev, symObjAddr: 0x3440, symBinAddr: 0x100007574, symSize: 0x10 }
  - { offset: 0x19D28, size: 0x8, addend: 0x0, symName: __ZNSt3__116allocator_traitsINS_9allocatorIN2sf6VertexEEEE10deallocateB8ne180100ERS4_PS3_m, symObjAddr: 0x3450, symBinAddr: 0x100007584, symSize: 0x34 }
  - { offset: 0x19D6A, size: 0x8, addend: 0x0, symName: __ZNSt3__16vectorIN2sf6VertexENS_9allocatorIS2_EEE7__allocB8ne180100Ev, symObjAddr: 0x3484, symBinAddr: 0x1000075B8, symSize: 0x28 }
  - { offset: 0x19D8F, size: 0x8, addend: 0x0, symName: __ZNKSt3__16vectorIN2sf6VertexENS_9allocatorIS2_EEE8capacityB8ne180100Ev, symObjAddr: 0x34AC, symBinAddr: 0x1000075E0, symSize: 0x40 }
  - { offset: 0x19DB4, size: 0x8, addend: 0x0, symName: __ZNSt3__16vectorIN2sf6VertexENS_9allocatorIS2_EEE22__base_destruct_at_endB8ne180100EPS2_, symObjAddr: 0x34EC, symBinAddr: 0x100007620, symSize: 0x8C }
  - { offset: 0x19DF7, size: 0x8, addend: 0x0, symName: __ZNSt3__116allocator_traitsINS_9allocatorIN2sf6VertexEEEE7destroyB8ne180100IS3_vEEvRS4_PT_, symObjAddr: 0x3578, symBinAddr: 0x1000076AC, symSize: 0x2C }
  - { offset: 0x19E34, size: 0x8, addend: 0x0, symName: __ZNSt3__19allocatorIN2sf6VertexEE7destroyB8ne180100EPS2_, symObjAddr: 0x35B8, symBinAddr: 0x1000076EC, symSize: 0x14 }
  - { offset: 0x19E67, size: 0x8, addend: 0x0, symName: __ZNSt3__19allocatorIN2sf6VertexEE10deallocateB8ne180100EPS2_m, symObjAddr: 0x35CC, symBinAddr: 0x100007700, symSize: 0x44 }
  - { offset: 0x19EA8, size: 0x8, addend: 0x0, symName: __ZNSt3__117__compressed_pairIPN2sf6VertexENS_9allocatorIS2_EEE6secondB8ne180100Ev, symObjAddr: 0x3610, symBinAddr: 0x100007744, symSize: 0x24 }
  - { offset: 0x19ECD, size: 0x8, addend: 0x0, symName: __ZNSt3__122__compressed_pair_elemINS_9allocatorIN2sf6VertexEEELi1ELb1EE5__getB8ne180100Ev, symObjAddr: 0x3634, symBinAddr: 0x100007768, symSize: 0x14 }
  - { offset: 0x19EF2, size: 0x8, addend: 0x0, symName: __ZNKSt3__16vectorIN2sf6VertexENS_9allocatorIS2_EEE9__end_capB8ne180100Ev, symObjAddr: 0x3648, symBinAddr: 0x10000777C, symSize: 0x28 }
  - { offset: 0x19F17, size: 0x8, addend: 0x0, symName: __ZNKSt3__117__compressed_pairIPN2sf6VertexENS_9allocatorIS2_EEE5firstB8ne180100Ev, symObjAddr: 0x3670, symBinAddr: 0x1000077A4, symSize: 0x24 }
  - { offset: 0x19F3C, size: 0x8, addend: 0x0, symName: __ZNKSt3__122__compressed_pair_elemIPN2sf6VertexELi0ELb0EE5__getB8ne180100Ev, symObjAddr: 0x3694, symBinAddr: 0x1000077C8, symSize: 0x14 }
  - { offset: 0x19F61, size: 0x8, addend: 0x0, symName: __ZN2sf6SpriteD2Ev, symObjAddr: 0x36A8, symBinAddr: 0x1000077DC, symSize: 0x38 }
  - { offset: 0x19F8C, size: 0x8, addend: 0x0, symName: __ZThn8_N2sf6SpriteD1Ev, symObjAddr: 0x36E0, symBinAddr: 0x100007814, symSize: 0x1C }
...
